target datalayout = "e-m:e-p270:32:32-p271:32:32-p272:64:64-i64:64-i128:128-f80:128-n8:16:32:64-S128"
target triple = "x86_64-pc-linux-gnu"

%struct.nstime_t = type { i64, i32 }
%struct._packet_info = type { ptr, ptr, i32, i32, %struct.nstime_t, %struct.nstime_t, %struct.nstime_t, i8, ptr, ptr, ptr, ptr, %struct._address, %struct._address, %struct._address, %struct._address, %struct._address, %struct._address, i32, ptr, i8, [3 x i8], %struct.anon.0, i32, i32, i32, i32, ptr, i8, ptr, ptr, i16, i16, i32, i32, i16, i32, i32, ptr, ptr, ptr, i8, i8, i16, i16, i16, i32, i16, i16, ptr, ptr, ptr, ptr, ptr, i32, i32 }
%struct._address = type { i32, i32, ptr, ptr }
%struct.anon.0 = type { i8, [3 x i8] }
%struct._proto_node = type { ptr, ptr, ptr, ptr, ptr, ptr, ptr }

@.str.10 = private unnamed_addr constant [5 x i8] c", %s\00", align 1
@.str.15 = private unnamed_addr constant [5 x i8] c": %s\00", align 1
@.str.16 = private unnamed_addr constant [4 x i8] c" %s\00", align 1

; Function Attrs: null_pointer_is_valid sspstrong uwtable
define internal void @cb_byte_array_postprocess(ptr noundef %0, ptr noundef %1, ptr noundef %2, ptr noundef %3, ptr noundef %4, i32 noundef %5, i32 noundef %6, ptr noundef %7) #0 {
  %9 = alloca ptr, align 8
  %10 = alloca ptr, align 8
  %11 = alloca ptr, align 8
  %12 = alloca ptr, align 8
  %13 = alloca ptr, align 8
  %14 = alloca i32, align 4
  %15 = alloca i32, align 4
  %16 = alloca ptr, align 8
  %17 = alloca i32, align 4
  %18 = alloca i32, align 4
  %19 = alloca ptr, align 8
  %20 = alloca i32, align 4
  store ptr %0, ptr %9, align 8
  store ptr %1, ptr %10, align 8
  store ptr %2, ptr %11, align 8
  store ptr %3, ptr %12, align 8
  store ptr %4, ptr %13, align 8
  store i32 %5, ptr %14, align 4
  store i32 %6, ptr %15, align 4
  store ptr %7, ptr %16, align 8
  call void @llvm.lifetime.start.p0(i64 4, ptr %17) #13
  %21 = load ptr, ptr %16, align 8
  %22 = ptrtoint ptr %21 to i64
  %23 = trunc i64 %22 to i32
  store i32 %23, ptr %17, align 4
  call void @llvm.lifetime.start.p0(i64 4, ptr %18) #13
  %24 = load i32, ptr %17, align 4
  %25 = and i32 %24, 65535
  store i32 %25, ptr %18, align 4
  call void @llvm.lifetime.start.p0(i64 8, ptr %19) #13
  %26 = load i32, ptr %14, align 4
  %27 = srem i32 %26, 4
  %28 = icmp ne i32 %27, 0
  br i1 %28, label %29, label %35

29:                                               ; preds = %8
  %30 = load i32, ptr %14, align 4
  %31 = srem i32 %30, 4
  %32 = sub i32 4, %31
  %33 = load i32, ptr %14, align 4
  %34 = add i32 %33, %32
  store i32 %34, ptr %14, align 4
  br label %35

35:                                               ; preds = %29, %8
  %36 = load i32, ptr %15, align 4
  %37 = load i32, ptr %14, align 4
  %38 = sub i32 %36, %37
  %39 = icmp sle i32 %38, 12
  br i1 %39, label %40, label %41

40:                                               ; preds = %35
  store i32 1, ptr %20, align 4
  br label %135

41:                                               ; preds = %35
  %42 = load ptr, ptr %9, align 8
  %43 = getelementptr inbounds nuw %struct._packet_info, ptr %42, i32 0, i32 51
  %44 = load ptr, ptr %43, align 8
  %45 = load ptr, ptr %13, align 8
  %46 = load i32, ptr %14, align 4
  %47 = add i32 %46, 12
  %48 = load i32, ptr %15, align 4
  %49 = load i32, ptr %14, align 4
  %50 = sub i32 %48, %49
  %51 = sub i32 %50, 12
  %52 = call ptr @tvb_bytes_to_str(ptr noundef %44, ptr noundef %45, i32 noundef %47, i32 noundef %51)
  store ptr %52, ptr %19, align 8
  %53 = load i32, ptr %17, align 4
  %54 = and i32 %53, 268435456
  %55 = icmp ne i32 %54, 0
  br i1 %55, label %56, label %61

56:                                               ; preds = %41
  %57 = load ptr, ptr %9, align 8
  %58 = getelementptr inbounds nuw %struct._packet_info, ptr %57, i32 0, i32 1
  %59 = load ptr, ptr %58, align 8
  %60 = load ptr, ptr %19, align 8
  call void (ptr, i32, ptr, ...) @col_append_fstr(ptr noundef %59, i32 noundef 25, ptr noundef @.str.10, ptr noundef %60)
  br label %61

61:                                               ; preds = %56, %41
  %62 = load i32, ptr %18, align 4
  %63 = icmp sgt i32 %62, 0
  br i1 %63, label %64, label %134

64:                                               ; preds = %61
  %65 = load ptr, ptr %11, align 8
  %66 = icmp ne ptr %65, null
  br i1 %66, label %67, label %134

67:                                               ; preds = %64
  %68 = load ptr, ptr %19, align 8
  %69 = icmp ne ptr %68, null
  br i1 %69, label %70, label %134

70:                                               ; preds = %67
  %71 = load ptr, ptr %19, align 8
  %72 = getelementptr i8, ptr %71, i64 0
  %73 = load i8, ptr %72, align 1
  %74 = sext i8 %73 to i32
  %75 = icmp ne i32 %74, 0
  br i1 %75, label %76, label %134

76:                                               ; preds = %70
  %77 = load ptr, ptr %11, align 8
  %78 = load ptr, ptr %19, align 8
  call void (ptr, ptr, ...) @proto_item_append_text(ptr noundef %77, ptr noundef @.str.15, ptr noundef %78)
  %79 = load ptr, ptr %11, align 8
  %80 = getelementptr inbounds nuw %struct._proto_node, ptr %79, i32 0, i32 3
  %81 = load ptr, ptr %80, align 8
  %82 = icmp ne ptr %81, null
  br i1 %82, label %83, label %87

83:                                               ; preds = %76
  %84 = load ptr, ptr %11, align 8
  %85 = getelementptr inbounds nuw %struct._proto_node, ptr %84, i32 0, i32 3
  %86 = load ptr, ptr %85, align 8
  br label %89

87:                                               ; preds = %76
  %88 = load ptr, ptr %11, align 8
  br label %89

89:                                               ; preds = %87, %83
  %90 = phi ptr [ %86, %83 ], [ %88, %87 ]
  store ptr %90, ptr %11, align 8
  %91 = load i32, ptr %18, align 4
  %92 = add i32 %91, -1
  store i32 %92, ptr %18, align 4
  %93 = load i32, ptr %18, align 4
  %94 = icmp sgt i32 %93, 0
  br i1 %94, label %95, label %133

95:                                               ; preds = %89
  %96 = load ptr, ptr %11, align 8
  %97 = load ptr, ptr %19, align 8
  call void (ptr, ptr, ...) @proto_item_append_text(ptr noundef %96, ptr noundef @.str.15, ptr noundef %97)
  %98 = load ptr, ptr %11, align 8
  %99 = getelementptr inbounds nuw %struct._proto_node, ptr %98, i32 0, i32 3
  %100 = load ptr, ptr %99, align 8
  %101 = icmp ne ptr %100, null
  br i1 %101, label %102, label %106

102:                                              ; preds = %95
  %103 = load ptr, ptr %11, align 8
  %104 = getelementptr inbounds nuw %struct._proto_node, ptr %103, i32 0, i32 3
  %105 = load ptr, ptr %104, align 8
  br label %108

106:                                              ; preds = %95
  %107 = load ptr, ptr %11, align 8
  br label %108

108:                                              ; preds = %106, %102
  %109 = phi ptr [ %105, %102 ], [ %107, %106 ]
  store ptr %109, ptr %11, align 8
  %110 = load i32, ptr %18, align 4
  %111 = add i32 %110, -1
  store i32 %111, ptr %18, align 4
  br label %112

112:                                              ; preds = %128, %108
  %113 = load i32, ptr %18, align 4
  %114 = icmp sgt i32 %113, 0
  br i1 %114, label %115, label %132

115:                                              ; preds = %112
  %116 = load ptr, ptr %11, align 8
  %117 = load ptr, ptr %19, align 8
  call void (ptr, ptr, ...) @proto_item_append_text(ptr noundef %116, ptr noundef @.str.16, ptr noundef %117)
  %118 = load ptr, ptr %11, align 8
  %119 = getelementptr inbounds nuw %struct._proto_node, ptr %118, i32 0, i32 3
  %120 = load ptr, ptr %119, align 8
  %121 = icmp ne ptr %120, null
  br i1 %121, label %122, label %126

122:                                              ; preds = %115
  %123 = load ptr, ptr %11, align 8
  %124 = getelementptr inbounds nuw %struct._proto_node, ptr %123, i32 0, i32 3
  %125 = load ptr, ptr %124, align 8
  br label %128

126:                                              ; preds = %115
  %127 = load ptr, ptr %11, align 8
  br label %128

128:                                              ; preds = %126, %122
  %129 = phi ptr [ %125, %122 ], [ %127, %126 ]
  store ptr %129, ptr %11, align 8
  %130 = load i32, ptr %18, align 4
  %131 = add i32 %130, -1
  store i32 %131, ptr %18, align 4
  br label %112, !llvm.loop !8

132:                                              ; preds = %112
  br label %133

133:                                              ; preds = %132, %89
  br label %134

134:                                              ; preds = %133, %70, %67, %64, %61
  store i32 0, ptr %20, align 4
  br label %135

135:                                              ; preds = %134, %40
  call void @llvm.lifetime.end.p0(i64 8, ptr %19) #13
  call void @llvm.lifetime.end.p0(i64 4, ptr %18) #13
  call void @llvm.lifetime.end.p0(i64 4, ptr %17) #13
  %136 = load i32, ptr %20, align 4
  switch i32 %136, label %138 [
    i32 0, label %137
    i32 1, label %137
  ]

137:                                              ; preds = %135, %135
  ret void

138:                                              ; preds = %135
  unreachable
}