; Function Attrs: null_pointer_is_valid sspstrong uwtable
define internal void @cb_byte_array_postprocess(ptr noundef readonly captures(none) %0, ptr readnone captures(none) %1, ptr noundef %2, ptr readnone captures(none) %3, ptr noundef %4, i32 noundef %5, i32 noundef %6, ptr noundef %7) #0 {
  %9 = ptrtoint ptr %7 to i64
  %10 = trunc i64 %9 to i32
  %11 = and i32 %10, 65535
  %12 = srem i32 %5, 4
  %.not = icmp eq i32 %12, 0
  %reass.sub = add i32 %5, 4
  %13 = sub i32 %reass.sub, %12
  %.042 = select i1 %.not, i32 %5, i32 %13
  %14 = sub i32 %6, %.042
  %15 = icmp slt i32 %14, 13
  br i1 %15, label %.loopexit, label %16

16:                                               ; preds = %8
  %17 = getelementptr inbounds nuw i8, ptr %0, i64 408
  %18 = load ptr, ptr %17, align 8
  %19 = add i32 %.042, 12
  %20 = add nsw i32 %14, -12
  %21 = tail call ptr @tvb_bytes_to_str(ptr noundef %18, ptr noundef %4, i32 noundef %19, i32 noundef %20)
  %22 = and i32 %10, 268435456
  %.not52 = icmp eq i32 %22, 0
  br i1 %.not52, label %26, label %23

23:                                               ; preds = %16
  %24 = getelementptr inbounds nuw i8, ptr %0, i64 8
  %25 = load ptr, ptr %24, align 8
  tail call void (ptr, i32, ptr, ...) @col_append_fstr(ptr noundef %25, i32 noundef 25, ptr noundef nonnull @.str.10, ptr noundef %21)
  br label %26

26:                                               ; preds = %23, %16
  %27 = icmp ne i32 %11, 0
  %28 = icmp ne ptr %2, null
  %or.cond = and i1 %28, %27
  %29 = icmp ne ptr %21, null
  %or.cond3 = select i1 %or.cond, i1 %29, i1 false
  br i1 %or.cond3, label %30, label %.loopexit

30:                                               ; preds = %26
  %31 = load i8, ptr %21, align 1
  %.not53 = icmp eq i8 %31, 0
  br i1 %.not53, label %.loopexit, label %32

32:                                               ; preds = %30
  tail call void (ptr, ptr, ...) @proto_item_append_text(ptr noundef nonnull %2, ptr noundef nonnull @.str.15, ptr noundef nonnull %21)
  %33 = icmp samesign ugt i32 %11, 1
  br i1 %33, label %34, label %.loopexit

34:                                               ; preds = %32
  %35 = getelementptr inbounds nuw i8, ptr %2, i64 24
  %36 = load ptr, ptr %35, align 8
  %.not54 = icmp eq ptr %36, null
  %. = select i1 %.not54, ptr %2, ptr %36
  tail call void (ptr, ptr, ...) @proto_item_append_text(ptr noundef nonnull %., ptr noundef nonnull @.str.15, ptr noundef nonnull %21)
  %.not59 = icmp eq i32 %11, 2
  br i1 %.not59, label %.loopexit, label %.lr.ph.preheader

.lr.ph.preheader:                                 ; preds = %34
  %37 = add nsw i32 %11, -2
  %38 = getelementptr inbounds nuw i8, ptr %., i64 24
  %39 = load ptr, ptr %38, align 8
  %.not55 = icmp eq ptr %39, null
  %.. = select i1 %.not55, ptr %., ptr %39
  br label %.lr.ph

.lr.ph:                                           ; preds = %.lr.ph.preheader, %.lr.ph
  %.058 = phi ptr [ %.0., %.lr.ph ], [ %.., %.lr.ph.preheader ]
  %.04157 = phi i32 [ %42, %.lr.ph ], [ %37, %.lr.ph.preheader ]
  tail call void (ptr, ptr, ...) @proto_item_append_text(ptr noundef %.058, ptr noundef nonnull @.str.16, ptr noundef nonnull %21)
  %40 = getelementptr inbounds nuw i8, ptr %.058, i64 24
  %41 = load ptr, ptr %40, align 8
  %.not56 = icmp eq ptr %41, null
  %.0. = select i1 %.not56, ptr %.058, ptr %41
  %42 = add nsw i32 %.04157, -1
  %43 = icmp samesign ugt i32 %.04157, 1
  br i1 %43, label %.lr.ph, label %.loopexit, !llvm.loop !8

.loopexit:                                        ; preds = %.lr.ph, %34, %26, %30, %32, %8
  ret void
}